target datalayout = "e-m:e-p270:32:32-p271:32:32-p272:64:64-i64:64-i128:128-f80:128-n8:16:32:64-S128"
target triple = "x86_64-pc-linux-gnu"

@hf_thread_dg_tlv = internal global i32 0, align 4
@hf_thread_dg_tlv_type = internal global i32 0, align 4
@hf_thread_dg_tlv_length8 = internal global i32 0, align 4
@hf_thread_dg_tlv_length16 = internal global i32 0, align 4
@hf_thread_dg_tlv_general = internal global i32 0, align 4
@hf_thread_dg_tlv_unknown = internal global i32 0, align 4
@ett_thread_dg = internal global i32 0, align 4
@ett_thread_dg_tlv = internal global i32 0, align 4
@proto_thread_dg = internal global i32 0, align 4
@.str.406 = private unnamed_addr constant [6 x i8] c" (%s)\00", align 1
@.str.407 = private unnamed_addr constant [13 x i8] c"Unknown (%d)\00", align 1

; Function Attrs: null_pointer_is_valid sspstrong uwtable
define internal i32 @dissect_thread_dg(ptr noundef %0, ptr noundef %1, ptr noundef %2, ptr noundef %3) #0 {
  %5 = alloca ptr, align 8
  %6 = alloca ptr, align 8
  %7 = alloca ptr, align 8
  %8 = alloca ptr, align 8
  %9 = alloca ptr, align 8
  %10 = alloca ptr, align 8
  %11 = alloca ptr, align 8
  %12 = alloca i32, align 4
  %13 = alloca ptr, align 8
  %14 = alloca i8, align 1
  %15 = alloca i16, align 2
  %16 = alloca i32, align 4
  %17 = alloca i32, align 4
  store ptr %0, ptr %5, align 8
  store ptr %1, ptr %6, align 8
  store ptr %2, ptr %7, align 8
  store ptr %3, ptr %8, align 8
  call void @llvm.lifetime.start.p0(i64 8, ptr %9) #9
  call void @llvm.lifetime.start.p0(i64 8, ptr %10) #9
  call void @llvm.lifetime.start.p0(i64 8, ptr %11) #9
  call void @llvm.lifetime.start.p0(i64 4, ptr %12) #9
  store i32 0, ptr %12, align 4
  call void @llvm.lifetime.start.p0(i64 8, ptr %13) #9
  call void @llvm.lifetime.start.p0(i64 1, ptr %14) #9
  call void @llvm.lifetime.start.p0(i64 2, ptr %15) #9
  call void @llvm.lifetime.start.p0(i64 4, ptr %16) #9
  %18 = load ptr, ptr %7, align 8
  %19 = load i32, ptr @proto_thread_dg, align 4
  %20 = load ptr, ptr %5, align 8
  %21 = load ptr, ptr %5, align 8
  %22 = call i32 @tvb_reported_length(ptr noundef %21)
  %23 = call ptr @proto_tree_add_item(ptr noundef %18, i32 noundef %19, ptr noundef %20, i32 noundef 0, i32 noundef %22, i32 noundef 0)
  store ptr %23, ptr %9, align 8
  %24 = load ptr, ptr %9, align 8
  %25 = load i32, ptr @ett_thread_dg, align 4
  %26 = call ptr @proto_item_add_subtree(ptr noundef %24, i32 noundef %25)
  store ptr %26, ptr %10, align 8
  br label %27

27:                                               ; preds = %137, %4
  %28 = load ptr, ptr %5, align 8
  %29 = load i32, ptr %12, align 4
  %30 = call zeroext i1 @tvb_offset_exists(ptr noundef %28, i32 noundef %29)
  br i1 %30, label %31, label %138

31:                                               ; preds = %27
  %32 = load ptr, ptr %5, align 8
  %33 = load i32, ptr %12, align 4
  %34 = call zeroext i8 @tvb_get_uint8(ptr noundef %32, i32 noundef %33)
  store i8 %34, ptr %14, align 1
  %35 = load ptr, ptr %5, align 8
  %36 = load i32, ptr %12, align 4
  %37 = add i32 %36, 1
  %38 = call zeroext i8 @tvb_get_uint8(ptr noundef %35, i32 noundef %37)
  %39 = zext i8 %38 to i16
  store i16 %39, ptr %15, align 2
  %40 = load i16, ptr %15, align 2
  %41 = zext i16 %40 to i32
  %42 = icmp eq i32 255, %41
  br i1 %42, label %43, label %48

43:                                               ; preds = %31
  %44 = load ptr, ptr %5, align 8
  %45 = load i32, ptr %12, align 4
  %46 = add i32 %45, 2
  %47 = call zeroext i16 @tvb_get_ntohs(ptr noundef %44, i32 noundef %46)
  store i16 %47, ptr %15, align 2
  store i32 3, ptr %16, align 4
  br label %49

48:                                               ; preds = %31
  store i32 1, ptr %16, align 4
  br label %49

49:                                               ; preds = %48, %43
  %50 = load ptr, ptr %10, align 8
  %51 = load i32, ptr @hf_thread_dg_tlv, align 4
  %52 = load ptr, ptr %5, align 8
  %53 = load i32, ptr %12, align 4
  %54 = load i32, ptr %16, align 4
  %55 = add i32 1, %54
  %56 = load i16, ptr %15, align 2
  %57 = zext i16 %56 to i32
  %58 = add i32 %55, %57
  %59 = call ptr @proto_tree_add_item(ptr noundef %50, i32 noundef %51, ptr noundef %52, i32 noundef %53, i32 noundef %58, i32 noundef 0)
  store ptr %59, ptr %13, align 8
  %60 = load ptr, ptr %13, align 8
  %61 = load i32, ptr @ett_thread_dg_tlv, align 4
  %62 = call ptr @proto_item_add_subtree(ptr noundef %60, i32 noundef %61)
  store ptr %62, ptr %11, align 8
  %63 = load ptr, ptr %11, align 8
  %64 = load i32, ptr @hf_thread_dg_tlv_type, align 4
  %65 = load ptr, ptr %5, align 8
  %66 = load i32, ptr %12, align 4
  %67 = call ptr @proto_tree_add_item(ptr noundef %63, i32 noundef %64, ptr noundef %65, i32 noundef %66, i32 noundef 1, i32 noundef 0)
  %68 = load i32, ptr %12, align 4
  %69 = add i32 %68, 1
  store i32 %69, ptr %12, align 4
  %70 = load ptr, ptr %13, align 8
  %71 = load i8, ptr %14, align 1
  %72 = zext i8 %71 to i32
  %73 = call ptr @val_to_str(i32 noundef %72, ptr noundef @thread_dg_tlv_vals, ptr noundef @.str.407)
  call void (ptr, ptr, ...) @proto_item_append_text(ptr noundef %70, ptr noundef @.str.406, ptr noundef %73)
  %74 = load i32, ptr %16, align 4
  switch i32 %74, label %88 [
    i32 1, label %75
    i32 3, label %81
  ]

75:                                               ; preds = %49
  %76 = load ptr, ptr %11, align 8
  %77 = load i32, ptr @hf_thread_dg_tlv_length8, align 4
  %78 = load ptr, ptr %5, align 8
  %79 = load i32, ptr %12, align 4
  %80 = call ptr @proto_tree_add_item(ptr noundef %76, i32 noundef %77, ptr noundef %78, i32 noundef %79, i32 noundef 1, i32 noundef 0)
  br label %89

81:                                               ; preds = %49
  %82 = load ptr, ptr %11, align 8
  %83 = load i32, ptr @hf_thread_dg_tlv_length16, align 4
  %84 = load ptr, ptr %5, align 8
  %85 = load i32, ptr %12, align 4
  %86 = add i32 %85, 1
  %87 = call ptr @proto_tree_add_item(ptr noundef %82, i32 noundef %83, ptr noundef %84, i32 noundef %86, i32 noundef 2, i32 noundef 0)
  br label %89

88:                                               ; preds = %49
  br label %89

89:                                               ; preds = %88, %81, %75
  %90 = load i32, ptr %16, align 4
  %91 = load i32, ptr %12, align 4
  %92 = add i32 %91, %90
  store i32 %92, ptr %12, align 4
  %93 = load i8, ptr %14, align 1
  %94 = zext i8 %93 to i32
  switch i32 %94, label %125 [
    i32 18, label %95
    i32 0, label %113
    i32 1, label %113
    i32 2, label %113
    i32 3, label %113
    i32 4, label %113
    i32 5, label %113
    i32 6, label %113
    i32 7, label %113
    i32 8, label %113
    i32 9, label %113
    i32 14, label %113
    i32 15, label %113
    i32 16, label %113
    i32 17, label %113
    i32 19, label %113
    i32 20, label %113
    i32 21, label %113
    i32 23, label %113
    i32 24, label %113
    i32 25, label %113
    i32 26, label %113
    i32 27, label %113
    i32 28, label %113
    i32 29, label %113
    i32 30, label %113
    i32 31, label %113
    i32 32, label %113
    i32 33, label %113
    i32 34, label %113
  ]

95:                                               ; preds = %89
  call void @llvm.lifetime.start.p0(i64 4, ptr %17) #9
  store i32 0, ptr %17, align 4
  br label %96

96:                                               ; preds = %109, %95
  %97 = load i32, ptr %17, align 4
  %98 = load i16, ptr %15, align 2
  %99 = zext i16 %98 to i32
  %100 = icmp slt i32 %97, %99
  br i1 %100, label %101, label %112

101:                                              ; preds = %96
  %102 = load ptr, ptr %11, align 8
  %103 = load i32, ptr @hf_thread_dg_tlv_type, align 4
  %104 = load ptr, ptr %5, align 8
  %105 = load i32, ptr %12, align 4
  %106 = call ptr @proto_tree_add_item(ptr noundef %102, i32 noundef %103, ptr noundef %104, i32 noundef %105, i32 noundef 1, i32 noundef 0)
  %107 = load i32, ptr %12, align 4
  %108 = add i32 %107, 1
  store i32 %108, ptr %12, align 4
  br label %109

109:                                              ; preds = %101
  %110 = load i32, ptr %17, align 4
  %111 = add i32 %110, 1
  store i32 %111, ptr %17, align 4
  br label %96, !llvm.loop !13

112:                                              ; preds = %96
  call void @llvm.lifetime.end.p0(i64 4, ptr %17) #9
  br label %137

113:                                              ; preds = %89, %89, %89, %89, %89, %89, %89, %89, %89, %89, %89, %89, %89, %89, %89, %89, %89, %89, %89, %89, %89, %89, %89, %89, %89, %89, %89, %89, %89
  %114 = load ptr, ptr %11, align 8
  %115 = load i32, ptr @hf_thread_dg_tlv_general, align 4
  %116 = load ptr, ptr %5, align 8
  %117 = load i32, ptr %12, align 4
  %118 = load i16, ptr %15, align 2
  %119 = zext i16 %118 to i32
  %120 = call ptr @proto_tree_add_item(ptr noundef %114, i32 noundef %115, ptr noundef %116, i32 noundef %117, i32 noundef %119, i32 noundef 0)
  %121 = load i16, ptr %15, align 2
  %122 = zext i16 %121 to i32
  %123 = load i32, ptr %12, align 4
  %124 = add i32 %123, %122
  store i32 %124, ptr %12, align 4
  br label %137

125:                                              ; preds = %89
  %126 = load ptr, ptr %11, align 8
  %127 = load i32, ptr @hf_thread_dg_tlv_unknown, align 4
  %128 = load ptr, ptr %5, align 8
  %129 = load i32, ptr %12, align 4
  %130 = load i16, ptr %15, align 2
  %131 = zext i16 %130 to i32
  %132 = call ptr @proto_tree_add_item(ptr noundef %126, i32 noundef %127, ptr noundef %128, i32 noundef %129, i32 noundef %131, i32 noundef 0)
  %133 = load i16, ptr %15, align 2
  %134 = zext i16 %133 to i32
  %135 = load i32, ptr %12, align 4
  %136 = add i32 %135, %134
  store i32 %136, ptr %12, align 4
  br label %137

137:                                              ; preds = %125, %113, %112
  br label %27, !llvm.loop !14

138:                                              ; preds = %27
  %139 = load ptr, ptr %5, align 8
  %140 = call i32 @tvb_captured_length(ptr noundef %139)
  call void @llvm.lifetime.end.p0(i64 4, ptr %16) #9
  call void @llvm.lifetime.end.p0(i64 2, ptr %15) #9
  call void @llvm.lifetime.end.p0(i64 1, ptr %14) #9
  call void @llvm.lifetime.end.p0(i64 8, ptr %13) #9
  call void @llvm.lifetime.end.p0(i64 4, ptr %12) #9
  call void @llvm.lifetime.end.p0(i64 8, ptr %11) #9
  call void @llvm.lifetime.end.p0(i64 8, ptr %10) #9
  call void @llvm.lifetime.end.p0(i64 8, ptr %9) #9
  ret i32 %140
}