; Function Attrs: null_pointer_is_valid sspstrong uwtable
define internal i32 @dissect_thread_dg(ptr noundef %0, ptr readnone captures(none) %1, ptr noundef %2, ptr readnone captures(none) %3) #0 {
  %5 = load i32, ptr @proto_thread_dg, align 4
  %6 = tail call i32 @tvb_reported_length(ptr noundef %0)
  %7 = tail call ptr @proto_tree_add_item(ptr noundef %2, i32 noundef %5, ptr noundef %0, i32 noundef 0, i32 noundef %6, i32 noundef 0)
  %8 = load i32, ptr @ett_thread_dg, align 4
  %9 = tail call ptr @proto_item_add_subtree(ptr noundef %7, i32 noundef %8)
  %10 = tail call zeroext i1 @tvb_offset_exists(ptr noundef %0, i32 noundef 0)
  br i1 %10, label %.lr.ph61, label %._crit_edge

.lr.ph61:                                         ; preds = %4, %.loopexit
  %.05660 = phi i32 [ %.2, %.loopexit ], [ 0, %4 ]
  %11 = tail call zeroext i8 @tvb_get_uint8(ptr noundef %0, i32 noundef %.05660)
  %12 = add i32 %.05660, 1
  %13 = tail call zeroext i8 @tvb_get_uint8(ptr noundef %0, i32 noundef %12)
  %.not = icmp eq i8 %13, -1
  br i1 %.not, label %14, label %17

14:                                               ; preds = %.lr.ph61
  %15 = add i32 %.05660, 2
  %16 = tail call zeroext i16 @tvb_get_ntohs(ptr noundef %0, i32 noundef %15)
  br label %19

17:                                               ; preds = %.lr.ph61
  %18 = zext i8 %13 to i16
  br label %19

19:                                               ; preds = %17, %14
  %.055 = phi i16 [ %16, %14 ], [ %18, %17 ]
  %.054 = phi i32 [ 3, %14 ], [ 1, %17 ]
  %20 = load i32, ptr @hf_thread_dg_tlv, align 4
  %21 = add nuw nsw i32 %.054, 1
  %22 = zext i16 %.055 to i32
  %23 = add nuw nsw i32 %21, %22
  %24 = tail call ptr @proto_tree_add_item(ptr noundef %9, i32 noundef %20, ptr noundef %0, i32 noundef %.05660, i32 noundef %23, i32 noundef 0)
  %25 = load i32, ptr @ett_thread_dg_tlv, align 4
  %26 = tail call ptr @proto_item_add_subtree(ptr noundef %24, i32 noundef %25)
  %27 = load i32, ptr @hf_thread_dg_tlv_type, align 4
  %28 = tail call ptr @proto_tree_add_item(ptr noundef %26, i32 noundef %27, ptr noundef %0, i32 noundef %.05660, i32 noundef 1, i32 noundef 0)
  %29 = zext i8 %11 to i32
  %30 = tail call ptr @val_to_str(i32 noundef %29, ptr noundef nonnull @thread_dg_tlv_vals, ptr noundef nonnull @.str.407)
  tail call void (ptr, ptr, ...) @proto_item_append_text(ptr noundef %24, ptr noundef nonnull @.str.406, ptr noundef %30)
  br i1 %.not, label %34, label %31

31:                                               ; preds = %19
  %32 = load i32, ptr @hf_thread_dg_tlv_length8, align 4
  %33 = tail call ptr @proto_tree_add_item(ptr noundef %26, i32 noundef %32, ptr noundef %0, i32 noundef %12, i32 noundef 1, i32 noundef 0)
  br label %38

34:                                               ; preds = %19
  %35 = load i32, ptr @hf_thread_dg_tlv_length16, align 4
  %36 = add i32 %.05660, 2
  %37 = tail call ptr @proto_tree_add_item(ptr noundef %26, i32 noundef %35, ptr noundef %0, i32 noundef %36, i32 noundef 2, i32 noundef 0)
  br label %38

38:                                               ; preds = %34, %31
  %39 = add i32 %.054, %12
  switch i8 %11, label %44 [
    i8 18, label %.preheader
    i8 0, label %.loopexit.sink.split
    i8 1, label %.loopexit.sink.split
    i8 2, label %.loopexit.sink.split
    i8 3, label %.loopexit.sink.split
    i8 4, label %.loopexit.sink.split
    i8 5, label %.loopexit.sink.split
    i8 6, label %.loopexit.sink.split
    i8 7, label %.loopexit.sink.split
    i8 8, label %.loopexit.sink.split
    i8 9, label %.loopexit.sink.split
    i8 14, label %.loopexit.sink.split
    i8 15, label %.loopexit.sink.split
    i8 16, label %.loopexit.sink.split
    i8 17, label %.loopexit.sink.split
    i8 19, label %.loopexit.sink.split
    i8 20, label %.loopexit.sink.split
    i8 21, label %.loopexit.sink.split
    i8 23, label %.loopexit.sink.split
    i8 24, label %.loopexit.sink.split
    i8 25, label %.loopexit.sink.split
    i8 26, label %.loopexit.sink.split
    i8 27, label %.loopexit.sink.split
    i8 28, label %.loopexit.sink.split
    i8 29, label %.loopexit.sink.split
    i8 30, label %.loopexit.sink.split
    i8 31, label %.loopexit.sink.split
    i8 32, label %.loopexit.sink.split
    i8 33, label %.loopexit.sink.split
    i8 34, label %.loopexit.sink.split
  ]

.preheader:                                       ; preds = %38
  %.not62 = icmp eq i16 %.055, 0
  br i1 %.not62, label %.loopexit, label %.lr.ph

.lr.ph:                                           ; preds = %.preheader, %.lr.ph
  %.059 = phi i32 [ %43, %.lr.ph ], [ 0, %.preheader ]
  %.158 = phi i32 [ %42, %.lr.ph ], [ %39, %.preheader ]
  %40 = load i32, ptr @hf_thread_dg_tlv_type, align 4
  %41 = tail call ptr @proto_tree_add_item(ptr noundef %26, i32 noundef %40, ptr noundef %0, i32 noundef %.158, i32 noundef 1, i32 noundef 0)
  %42 = add i32 %.158, 1
  %43 = add nuw nsw i32 %.059, 1
  %exitcond.not = icmp eq i32 %43, %22
  br i1 %exitcond.not, label %.loopexit, label %.lr.ph, !llvm.loop !13

44:                                               ; preds = %38
  br label %.loopexit.sink.split

.loopexit.sink.split:                             ; preds = %38, %38, %38, %38, %38, %38, %38, %38, %38, %38, %38, %38, %38, %38, %38, %38, %38, %38, %38, %38, %38, %38, %38, %38, %38, %38, %38, %38, %38, %44
  %hf_thread_dg_tlv_unknown.sink = phi ptr [ @hf_thread_dg_tlv_unknown, %44 ], [ @hf_thread_dg_tlv_general, %38 ], [ @hf_thread_dg_tlv_general, %38 ], [ @hf_thread_dg_tlv_general, %38 ], [ @hf_thread_dg_tlv_general, %38 ], [ @hf_thread_dg_tlv_general, %38 ], [ @hf_thread_dg_tlv_general, %38 ], [ @hf_thread_dg_tlv_general, %38 ], [ @hf_thread_dg_tlv_general, %38 ], [ @hf_thread_dg_tlv_general, %38 ], [ @hf_thread_dg_tlv_general, %38 ], [ @hf_thread_dg_tlv_general, %38 ], [ @hf_thread_dg_tlv_general, %38 ], [ @hf_thread_dg_tlv_general, %38 ], [ @hf_thread_dg_tlv_general, %38 ], [ @hf_thread_dg_tlv_general, %38 ], [ @hf_thread_dg_tlv_general, %38 ], [ @hf_thread_dg_tlv_general, %38 ], [ @hf_thread_dg_tlv_general, %38 ], [ @hf_thread_dg_tlv_general, %38 ], [ @hf_thread_dg_tlv_general, %38 ], [ @hf_thread_dg_tlv_general, %38 ], [ @hf_thread_dg_tlv_general, %38 ], [ @hf_thread_dg_tlv_general, %38 ], [ @hf_thread_dg_tlv_general, %38 ], [ @hf_thread_dg_tlv_general, %38 ], [ @hf_thread_dg_tlv_general, %38 ], [ @hf_thread_dg_tlv_general, %38 ], [ @hf_thread_dg_tlv_general, %38 ], [ @hf_thread_dg_tlv_general, %38 ]
  %45 = load i32, ptr %hf_thread_dg_tlv_unknown.sink, align 4
  %46 = tail call ptr @proto_tree_add_item(ptr noundef %26, i32 noundef %45, ptr noundef %0, i32 noundef %39, i32 noundef %22, i32 noundef 0)
  %47 = add i32 %39, %22
  br label %.loopexit

.loopexit:                                        ; preds = %.lr.ph, %.loopexit.sink.split, %.preheader
  %.2 = phi i32 [ %39, %.preheader ], [ %47, %.loopexit.sink.split ], [ %42, %.lr.ph ]
  %48 = tail call zeroext i1 @tvb_offset_exists(ptr noundef %0, i32 noundef %.2)
  br i1 %48, label %.lr.ph61, label %._crit_edge, !llvm.loop !14

._crit_edge:                                      ; preds = %.loopexit, %4
  %49 = tail call i32 @tvb_captured_length(ptr noundef %0)
  ret i32 %49
}